target datalayout = "e-m:e-p270:32:32-p271:32:32-p272:64:64-i64:64-i128:128-f80:128-n8:16:32:64-S128"
target triple = "x86_64-pc-linux-gnu"

%"class.Assimp::MDCImporter" = type <{ %"class.Assimp::BaseImporter", i32, [4 x i8], ptr, ptr, i32, [4 x i8] }>
%"class.Assimp::BaseImporter" = type { ptr, double, double, %"class.std::__cxx11::basic_string", %"class.std::__exception_ptr::exception_ptr", ptr }
%"class.std::__cxx11::basic_string" = type { %"struct.std::__cxx11::basic_string<char>::_Alloc_hider", i64, %union.anon }
%"struct.std::__cxx11::basic_string<char>::_Alloc_hider" = type { ptr }
%union.anon = type { i64, [8 x i8] }
%"class.std::__exception_ptr::exception_ptr" = type { ptr }
%"struct.Assimp::MDC::Surface" = type { i32, [64 x i8], i32, i32, i32, i32, i32, i32, i32, i32, i32, i32, i32, i32, i32, i32 }

@_ZTI17DeadlyImportError = linkonce_odr constant { ptr, ptr, ptr } { ptr getelementptr inbounds (ptr, ptr @_ZTVN10__cxxabiv120__si_class_type_infoE, i64 2), ptr @_ZTS17DeadlyImportError, ptr @_ZTI15DeadlyErrorBase }, comdat, align 8
@.str.6 = private unnamed_addr constant [101 x i8] c"Some of the offset values in the MDC surface header are invalid and point somewhere behind the file.\00", align 1

; Function Attrs: mustprogress uwtable
define hidden void @_ZN6Assimp11MDCImporter21ValidateSurfaceHeaderEPKNS_3MDC7SurfaceE(ptr noundef nonnull align 8 dereferenceable(100) %0, ptr noundef %1) #4 align 2 personality ptr @__gxx_personality_v0 {
  %3 = alloca ptr, align 8
  %4 = alloca ptr, align 8
  %5 = alloca i32, align 4
  %6 = alloca ptr, align 8
  %7 = alloca i32, align 4
  store ptr %0, ptr %3, align 8
  store ptr %1, ptr %4, align 8
  %8 = load ptr, ptr %3, align 8
  call void @llvm.lifetime.start.p0(i64 4, ptr %5) #17
  %9 = getelementptr inbounds nuw %"class.Assimp::MDCImporter", ptr %8, i32 0, i32 5
  %10 = load i32, ptr %9, align 8
  %11 = load ptr, ptr %4, align 8
  %12 = getelementptr inbounds nuw %"class.Assimp::MDCImporter", ptr %8, i32 0, i32 3
  %13 = load ptr, ptr %12, align 8
  %14 = ptrtoint ptr %11 to i64
  %15 = ptrtoint ptr %13 to i64
  %16 = sub i64 %14, %15
  %17 = trunc i64 %16 to i32
  %18 = sub i32 %10, %17
  store i32 %18, ptr %5, align 4
  %19 = load ptr, ptr %4, align 8
  %20 = getelementptr inbounds nuw %"struct.Assimp::MDC::Surface", ptr %19, i32 0, i32 11
  %21 = load i32, ptr %20, align 1
  %22 = zext i32 %21 to i64
  %23 = load ptr, ptr %4, align 8
  %24 = getelementptr inbounds nuw %"struct.Assimp::MDC::Surface", ptr %23, i32 0, i32 6
  %25 = load i32, ptr %24, align 1
  %26 = zext i32 %25 to i64
  %27 = mul i64 %26, 8
  %28 = add i64 %22, %27
  %29 = load i32, ptr %5, align 4
  %30 = zext i32 %29 to i64
  %31 = icmp ugt i64 %28, %30
  br i1 %31, label %120, label %32

32:                                               ; preds = %2
  %33 = load ptr, ptr %4, align 8
  %34 = getelementptr inbounds nuw %"struct.Assimp::MDC::Surface", ptr %33, i32 0, i32 3
  %35 = load i32, ptr %34, align 1
  %36 = icmp ne i32 %35, 0
  br i1 %36, label %37, label %51

37:                                               ; preds = %32
  %38 = load ptr, ptr %4, align 8
  %39 = getelementptr inbounds nuw %"struct.Assimp::MDC::Surface", ptr %38, i32 0, i32 12
  %40 = load i32, ptr %39, align 1
  %41 = zext i32 %40 to i64
  %42 = load ptr, ptr %4, align 8
  %43 = getelementptr inbounds nuw %"struct.Assimp::MDC::Surface", ptr %42, i32 0, i32 6
  %44 = load i32, ptr %43, align 1
  %45 = zext i32 %44 to i64
  %46 = mul i64 %45, 4
  %47 = add i64 %41, %46
  %48 = load i32, ptr %5, align 4
  %49 = zext i32 %48 to i64
  %50 = icmp ugt i64 %47, %49
  br i1 %50, label %120, label %51

51:                                               ; preds = %37, %32
  %52 = load ptr, ptr %4, align 8
  %53 = getelementptr inbounds nuw %"struct.Assimp::MDC::Surface", ptr %52, i32 0, i32 8
  %54 = load i32, ptr %53, align 1
  %55 = zext i32 %54 to i64
  %56 = load ptr, ptr %4, align 8
  %57 = getelementptr inbounds nuw %"struct.Assimp::MDC::Surface", ptr %56, i32 0, i32 7
  %58 = load i32, ptr %57, align 1
  %59 = zext i32 %58 to i64
  %60 = mul i64 %59, 12
  %61 = add i64 %55, %60
  %62 = load i32, ptr %5, align 4
  %63 = zext i32 %62 to i64
  %64 = icmp ugt i64 %61, %63
  br i1 %64, label %120, label %65

65:                                               ; preds = %51
  %66 = load ptr, ptr %4, align 8
  %67 = getelementptr inbounds nuw %"struct.Assimp::MDC::Surface", ptr %66, i32 0, i32 10
  %68 = load i32, ptr %67, align 1
  %69 = zext i32 %68 to i64
  %70 = load ptr, ptr %4, align 8
  %71 = getelementptr inbounds nuw %"struct.Assimp::MDC::Surface", ptr %70, i32 0, i32 6
  %72 = load i32, ptr %71, align 1
  %73 = zext i32 %72 to i64
  %74 = mul i64 %73, 8
  %75 = add i64 %69, %74
  %76 = load i32, ptr %5, align 4
  %77 = zext i32 %76 to i64
  %78 = icmp ugt i64 %75, %77
  br i1 %78, label %120, label %79

79:                                               ; preds = %65
  %80 = load ptr, ptr %4, align 8
  %81 = getelementptr inbounds nuw %"struct.Assimp::MDC::Surface", ptr %80, i32 0, i32 9
  %82 = load i32, ptr %81, align 1
  %83 = zext i32 %82 to i64
  %84 = load ptr, ptr %4, align 8
  %85 = getelementptr inbounds nuw %"struct.Assimp::MDC::Surface", ptr %84, i32 0, i32 5
  %86 = load i32, ptr %85, align 1
  %87 = zext i32 %86 to i64
  %88 = mul i64 %87, 68
  %89 = add i64 %83, %88
  %90 = load i32, ptr %5, align 4
  %91 = zext i32 %90 to i64
  %92 = icmp ugt i64 %89, %91
  br i1 %92, label %120, label %93

93:                                               ; preds = %79
  %94 = load ptr, ptr %4, align 8
  %95 = getelementptr inbounds nuw %"struct.Assimp::MDC::Surface", ptr %94, i32 0, i32 13
  %96 = load i32, ptr %95, align 1
  %97 = load ptr, ptr %4, align 8
  %98 = getelementptr inbounds nuw %"struct.Assimp::MDC::Surface", ptr %97, i32 0, i32 4
  %99 = load i32, ptr %98, align 1
  %100 = mul i32 %99, 2
  %101 = add i32 %96, %100
  %102 = load i32, ptr %5, align 4
  %103 = icmp ugt i32 %101, %102
  br i1 %103, label %120, label %104

104:                                              ; preds = %93
  %105 = load ptr, ptr %4, align 8
  %106 = getelementptr inbounds nuw %"struct.Assimp::MDC::Surface", ptr %105, i32 0, i32 3
  %107 = load i32, ptr %106, align 1
  %108 = icmp ne i32 %107, 0
  br i1 %108, label %109, label %127

109:                                              ; preds = %104
  %110 = load ptr, ptr %4, align 8
  %111 = getelementptr inbounds nuw %"struct.Assimp::MDC::Surface", ptr %110, i32 0, i32 14
  %112 = load i32, ptr %111, align 1
  %113 = load ptr, ptr %4, align 8
  %114 = getelementptr inbounds nuw %"struct.Assimp::MDC::Surface", ptr %113, i32 0, i32 3
  %115 = load i32, ptr %114, align 1
  %116 = mul i32 %115, 2
  %117 = add i32 %112, %116
  %118 = load i32, ptr %5, align 4
  %119 = icmp ugt i32 %117, %118
  br i1 %119, label %120, label %127

120:                                              ; preds = %109, %93, %79, %65, %51, %37, %2
  %121 = call ptr @__cxa_allocate_exception(i64 16) #17
  invoke void @_ZN17DeadlyImportErrorC2EPKc(ptr noundef nonnull align 8 dereferenceable(16) %121, ptr noundef @.str.6)
          to label %122 unwind label %123

122:                                              ; preds = %120
  call void @__cxa_throw(ptr %121, ptr @_ZTI17DeadlyImportError, ptr @_ZNSt13runtime_errorD2Ev) #18
  unreachable

123:                                              ; preds = %120
  %124 = landingpad { ptr, i32 }
          cleanup
  %125 = extractvalue { ptr, i32 } %124, 0
  store ptr %125, ptr %6, align 8
  %126 = extractvalue { ptr, i32 } %124, 1
  store i32 %126, ptr %7, align 4
  call void @__cxa_free_exception(ptr %121) #17
  call void @llvm.lifetime.end.p0(i64 4, ptr %5) #17
  br label %128

127:                                              ; preds = %109, %104
  call void @llvm.lifetime.end.p0(i64 4, ptr %5) #17
  ret void

128:                                              ; preds = %123
  %129 = load ptr, ptr %6, align 8
  %130 = load i32, ptr %7, align 4
  %131 = insertvalue { ptr, i32 } poison, ptr %129, 0
  %132 = insertvalue { ptr, i32 } %131, i32 %130, 1
  resume { ptr, i32 } %132
}