; Function Attrs: mustprogress uwtable
define hidden void @_ZN6Assimp11MDCImporter21ValidateSurfaceHeaderEPKNS_3MDC7SurfaceE(ptr noundef nonnull readonly align 8 captures(none) dereferenceable(100) %0, ptr noundef %1) local_unnamed_addr #5 align 2 personality ptr @__gxx_personality_v0 {
  %3 = getelementptr inbounds nuw i8, ptr %0, i64 96
  %4 = load i32, ptr %3, align 8
  %5 = getelementptr inbounds nuw i8, ptr %0, i64 80
  %6 = load ptr, ptr %5, align 8
  %7 = ptrtoint ptr %1 to i64
  %8 = ptrtoint ptr %6 to i64
  %.neg = sub i64 %8, %7
  %.neg28 = trunc i64 %.neg to i32
  %9 = add i32 %4, %.neg28
  %10 = getelementptr inbounds nuw i8, ptr %1, i64 104
  %11 = load i32, ptr %10, align 1
  %12 = zext i32 %11 to i64
  %13 = getelementptr inbounds nuw i8, ptr %1, i64 84
  %14 = load i32, ptr %13, align 1
  %15 = zext i32 %14 to i64
  %16 = shl nuw nsw i64 %15, 3
  %17 = add nuw nsw i64 %16, %12
  %18 = zext i32 %9 to i64
  %19 = icmp samesign ugt i64 %17, %18
  br i1 %19, label %71, label %20

20:                                               ; preds = %2
  %21 = getelementptr inbounds nuw i8, ptr %1, i64 72
  %22 = load i32, ptr %21, align 1
  %.not = icmp eq i32 %22, 0
  br i1 %.not, label %30, label %23

23:                                               ; preds = %20
  %24 = getelementptr inbounds nuw i8, ptr %1, i64 108
  %25 = load i32, ptr %24, align 1
  %26 = zext i32 %25 to i64
  %27 = shl nuw nsw i64 %15, 2
  %28 = add nuw nsw i64 %27, %26
  %29 = icmp samesign ugt i64 %28, %18
  br i1 %29, label %71, label %30

30:                                               ; preds = %23, %20
  %31 = getelementptr inbounds nuw i8, ptr %1, i64 92
  %32 = load i32, ptr %31, align 1
  %33 = zext i32 %32 to i64
  %34 = getelementptr inbounds nuw i8, ptr %1, i64 88
  %35 = load i32, ptr %34, align 1
  %36 = zext i32 %35 to i64
  %37 = mul nuw nsw i64 %36, 12
  %38 = add nuw nsw i64 %37, %33
  %39 = icmp samesign ugt i64 %38, %18
  br i1 %39, label %71, label %40

40:                                               ; preds = %30
  %41 = getelementptr inbounds nuw i8, ptr %1, i64 100
  %42 = load i32, ptr %41, align 1
  %43 = zext i32 %42 to i64
  %44 = add nuw nsw i64 %16, %43
  %45 = icmp samesign ugt i64 %44, %18
  br i1 %45, label %71, label %46

46:                                               ; preds = %40
  %47 = getelementptr inbounds nuw i8, ptr %1, i64 96
  %48 = load i32, ptr %47, align 1
  %49 = zext i32 %48 to i64
  %50 = getelementptr inbounds nuw i8, ptr %1, i64 80
  %51 = load i32, ptr %50, align 1
  %52 = zext i32 %51 to i64
  %53 = mul nuw nsw i64 %52, 68
  %54 = add nuw nsw i64 %53, %49
  %55 = icmp samesign ugt i64 %54, %18
  br i1 %55, label %71, label %56

56:                                               ; preds = %46
  %57 = getelementptr inbounds nuw i8, ptr %1, i64 112
  %58 = load i32, ptr %57, align 1
  %59 = getelementptr inbounds nuw i8, ptr %1, i64 76
  %60 = load i32, ptr %59, align 1
  %61 = shl i32 %60, 1
  %62 = add i32 %61, %58
  %63 = icmp ugt i32 %62, %9
  br i1 %63, label %71, label %64

64:                                               ; preds = %56
  br i1 %.not, label %76, label %65

65:                                               ; preds = %64
  %66 = getelementptr inbounds nuw i8, ptr %1, i64 116
  %67 = load i32, ptr %66, align 1
  %68 = shl i32 %22, 1
  %69 = add i32 %67, %68
  %70 = icmp ugt i32 %69, %9
  br i1 %70, label %71, label %76

71:                                               ; preds = %65, %56, %46, %40, %30, %23, %2
  %72 = tail call ptr @__cxa_allocate_exception(i64 16) #24
  invoke void @_ZN17DeadlyImportErrorC2EPKc(ptr noundef nonnull align 8 dereferenceable(16) %72, ptr noundef nonnull @.str.6)
          to label %73 unwind label %74

73:                                               ; preds = %71
  tail call void @__cxa_throw(ptr nonnull %72, ptr nonnull @_ZTI17DeadlyImportError, ptr nonnull @_ZNSt13runtime_errorD2Ev) #25
  unreachable

74:                                               ; preds = %71
  %75 = landingpad { ptr, i32 }
          cleanup
  tail call void @__cxa_free_exception(ptr nonnull %72) #24
  resume { ptr, i32 } %75

76:                                               ; preds = %65, %64
  ret void
}